target datalayout = "e-m:e-p270:32:32-p271:32:32-p272:64:64-i64:64-i128:128-f80:128-n8:16:32:64-S128"
target triple = "x86_64-pc-linux-gnu"

%"class.icu_77::UnicodeString" = type { %"class.icu_77::Replaceable", %"union.icu_77::UnicodeString::StackBufferOrFields" }
%"class.icu_77::Replaceable" = type { %"class.icu_77::UObject" }
%"class.icu_77::UObject" = type { ptr }
%"union.icu_77::UnicodeString::StackBufferOrFields" = type { %struct.anon.1, [32 x i8] }
%struct.anon.1 = type { i16, i32, i32, ptr }
%"class.icu_77::FieldPosition" = type <{ %"class.icu_77::UObject", i32, i32, i32, [4 x i8] }>
%"class.icu_77::DateInterval" = type { %"class.icu_77::UObject", double, double }
%"class.icu_77::Char16Ptr" = type { ptr }
%struct.UFieldPosition = type { i32, i32, i32 }
%struct.anon = type { i16, [27 x i16] }

@_ZTVN6icu_777UObjectE = available_externally unnamed_addr constant { [5 x ptr] } { [5 x ptr] [ptr null, ptr @_ZTIN6icu_777UObjectE, ptr @_ZN6icu_777UObjectD1Ev, ptr @_ZN6icu_777UObjectD0Ev, ptr @_ZNK6icu_777UObject17getDynamicClassIDEv] }, align 8
@_ZTVN6icu_7713FieldPositionE = available_externally unnamed_addr constant { [5 x ptr] } { [5 x ptr] [ptr null, ptr @_ZTIN6icu_7713FieldPositionE, ptr @_ZN6icu_7713FieldPositionD1Ev, ptr @_ZN6icu_7713FieldPositionD0Ev, ptr @_ZNK6icu_7713FieldPosition17getDynamicClassIDEv] }, align 8

; Function Attrs: inlinehint mustprogress nounwind uwtable
define linkonce_odr void @_ZN6icu_777UObjectC2Ev(ptr noundef nonnull align 8 dereferenceable(8) %0) unnamed_addr #2 comdat align 2 {
  %2 = alloca ptr, align 8
  store ptr %0, ptr %2, align 8, !tbaa !100
  %3 = load ptr, ptr %2, align 8
  store ptr getelementptr inbounds inrange(-16, 24) ({ [5 x ptr] }, ptr @_ZTVN6icu_777UObjectE, i32 0, i32 0, i32 2), ptr %3, align 8, !tbaa !37
  ret void
}

; Function Attrs: inlinehint mustprogress nounwind uwtable
define linkonce_odr void @_ZN6icu_7711ReplaceableC2Ev(ptr noundef nonnull align 8 dereferenceable(8) %0) unnamed_addr #2 comdat align 2 {
  %2 = alloca ptr, align 8
  store ptr %0, ptr %2, align 8, !tbaa !98
  %3 = load ptr, ptr %2, align 8
  call void @_ZN6icu_777UObjectC2Ev(ptr noundef nonnull align 8 dereferenceable(8) %3) #11
  store ptr getelementptr inbounds inrange(-16, 88) ({ [13 x ptr] }, ptr @_ZTVN6icu_7711ReplaceableE, i32 0, i32 0, i32 2), ptr %3, align 8, !tbaa !37
  ret void
}

; Function Attrs: inlinehint mustprogress nounwind uwtable
define linkonce_odr void @_ZN6icu_779Char16PtrD2Ev(ptr noundef nonnull align 8 dereferenceable(8) %0) unnamed_addr #2 comdat align 2 {
  %2 = alloca ptr, align 8
  store ptr %0, ptr %2, align 8, !tbaa !86
  %3 = load ptr, ptr %2, align 8
  %4 = getelementptr inbounds nuw %"class.icu_77::Char16Ptr", ptr %3, i32 0, i32 0
  %5 = load ptr, ptr %4, align 8, !tbaa !88
  call void asm sideeffect "", "rm,~{memory},~{dirflag},~{fpsr},~{flags}"(ptr %5) #11, !srcloc !90
  ret void
}

; Function Attrs: inlinehint mustprogress nounwind uwtable
define linkonce_odr void @_ZN6icu_779Char16PtrC2EPDs(ptr noundef nonnull align 8 dereferenceable(8) %0, ptr noundef %1) unnamed_addr #2 comdat align 2 {
  %3 = alloca ptr, align 8
  %4 = alloca ptr, align 8
  store ptr %0, ptr %3, align 8, !tbaa !86
  store ptr %1, ptr %4, align 8, !tbaa !49
  %5 = load ptr, ptr %3, align 8
  %6 = getelementptr inbounds nuw %"class.icu_77::Char16Ptr", ptr %5, i32 0, i32 0
  %7 = load ptr, ptr %4, align 8, !tbaa !49
  store ptr %7, ptr %6, align 8, !tbaa !88
  ret void
}

; Function Attrs: mustprogress nounwind uwtable
define linkonce_odr noundef i32 @_ZNK6icu_7713FieldPosition11getEndIndexEv(ptr noundef nonnull align 8 dereferenceable(20) %0) #0 comdat align 2 {
  %2 = alloca ptr, align 8
  store ptr %0, ptr %2, align 8, !tbaa !79
  %3 = load ptr, ptr %2, align 8
  %4 = getelementptr inbounds nuw %"class.icu_77::FieldPosition", ptr %3, i32 0, i32 3
  %5 = load i32, ptr %4, align 8, !tbaa !85
  ret i32 %5
}

; Function Attrs: mustprogress nounwind uwtable
define linkonce_odr noundef i32 @_ZNK6icu_7713FieldPosition13getBeginIndexEv(ptr noundef nonnull align 8 dereferenceable(20) %0) #0 comdat align 2 {
  %2 = alloca ptr, align 8
  store ptr %0, ptr %2, align 8, !tbaa !79
  %3 = load ptr, ptr %2, align 8
  %4 = getelementptr inbounds nuw %"class.icu_77::FieldPosition", ptr %3, i32 0, i32 2
  %5 = load i32, ptr %4, align 4, !tbaa !84
  ret i32 %5
}

; Function Attrs: mustprogress nounwind uwtable
define linkonce_odr void @_ZN6icu_7713FieldPosition8setFieldEi(ptr noundef nonnull align 8 dereferenceable(20) %0, i32 noundef %1) #0 comdat align 2 {
  %3 = alloca ptr, align 8
  %4 = alloca i32, align 4
  store ptr %0, ptr %3, align 8, !tbaa !79
  store i32 %1, ptr %4, align 4, !tbaa !14
  %5 = load ptr, ptr %3, align 8
  %6 = load i32, ptr %4, align 4, !tbaa !14
  %7 = getelementptr inbounds nuw %"class.icu_77::FieldPosition", ptr %5, i32 0, i32 1
  store i32 %6, ptr %7, align 8, !tbaa !81
  ret void
}

; Function Attrs: mustprogress nounwind uwtable
define linkonce_odr void @_ZN6icu_7713FieldPositionC2Ev(ptr noundef nonnull align 8 dereferenceable(20) %0) unnamed_addr #0 comdat align 2 {
  %2 = alloca ptr, align 8
  store ptr %0, ptr %2, align 8, !tbaa !79
  %3 = load ptr, ptr %2, align 8
  %4 = getelementptr inbounds i8, ptr %3, i64 0
  call void @llvm.memset.p0.i64(ptr align 8 %4, i8 0, i64 8, i1 false)
  call void @_ZN6icu_777UObjectC2Ev(ptr noundef nonnull align 8 dereferenceable(8) %3) #11
  store ptr getelementptr inbounds inrange(-16, 24) ({ [5 x ptr] }, ptr @_ZTVN6icu_7713FieldPositionE, i32 0, i32 0, i32 2), ptr %3, align 8, !tbaa !37
  %5 = getelementptr inbounds nuw %"class.icu_77::FieldPosition", ptr %3, i32 0, i32 1
  store i32 -1, ptr %5, align 8, !tbaa !81
  %6 = getelementptr inbounds nuw %"class.icu_77::FieldPosition", ptr %3, i32 0, i32 2
  store i32 0, ptr %6, align 4, !tbaa !84
  %7 = getelementptr inbounds nuw %"class.icu_77::FieldPosition", ptr %3, i32 0, i32 3
  store i32 0, ptr %7, align 8, !tbaa !85
  ret void
}

; Function Attrs: inlinehint mustprogress uwtable
define linkonce_odr void @_ZN6icu_7713UnicodeStringC2Ev(ptr noundef nonnull align 8 dereferenceable(64) %0) unnamed_addr #3 comdat align 2 {
  %2 = alloca ptr, align 8
  store ptr %0, ptr %2, align 8, !tbaa !76
  %3 = load ptr, ptr %2, align 8
  call void @_ZN6icu_7711ReplaceableC2Ev(ptr noundef nonnull align 8 dereferenceable(8) %3)
  store ptr getelementptr inbounds inrange(-16, 88) ({ [13 x ptr] }, ptr @_ZTVN6icu_7713UnicodeStringE, i32 0, i32 0, i32 2), ptr %3, align 8, !tbaa !37
  %4 = getelementptr inbounds nuw %"class.icu_77::UnicodeString", ptr %3, i32 0, i32 1
  %5 = getelementptr inbounds nuw %struct.anon, ptr %4, i32 0, i32 0
  store i16 2, ptr %5, align 8, !tbaa !78
  ret void
}

; Function Attrs: inlinehint mustprogress nounwind uwtable
define internal noundef signext i8 @_ZL9U_FAILURE10UErrorCode(i32 noundef %0) #2 {
  %2 = alloca i32, align 4
  store i32 %0, ptr %2, align 4, !tbaa !15
  %3 = load i32, ptr %2, align 4, !tbaa !15
  %4 = icmp sgt i32 %3, 0
  %5 = zext i1 %4 to i8
  ret i8 %5
}

; Function Attrs: mustprogress uwtable
define i32 @udtitvfmt_format_77(ptr noundef %0, double noundef %1, double noundef %2, ptr noundef %3, i32 noundef %4, ptr noundef %5, ptr noundef %6) #1 personality ptr @__gxx_personality_v0 {
  %8 = alloca i32, align 4
  %9 = alloca ptr, align 8
  %10 = alloca double, align 8
  %11 = alloca double, align 8
  %12 = alloca ptr, align 8
  %13 = alloca i32, align 4
  %14 = alloca ptr, align 8
  %15 = alloca ptr, align 8
  %16 = alloca %"class.icu_77::UnicodeString", align 8
  %17 = alloca ptr, align 8
  %18 = alloca i32, align 4
  %19 = alloca %"class.icu_77::FieldPosition", align 8
  %20 = alloca %"class.icu_77::DateInterval", align 8
  %21 = alloca i32, align 4
  %22 = alloca %"class.icu_77::Char16Ptr", align 8
  store ptr %0, ptr %9, align 8, !tbaa !66
  store double %1, ptr %10, align 8, !tbaa !68
  store double %2, ptr %11, align 8, !tbaa !68
  store ptr %3, ptr %12, align 8, !tbaa !49
  store i32 %4, ptr %13, align 4, !tbaa !14
  store ptr %5, ptr %14, align 8, !tbaa !70
  store ptr %6, ptr %15, align 8, !tbaa !22
  %23 = load ptr, ptr %15, align 8, !tbaa !22
  %24 = load i32, ptr %23, align 4, !tbaa !15
  %25 = call noundef signext i8 @_ZL9U_FAILURE10UErrorCode(i32 noundef %24)
  %26 = icmp ne i8 %25, 0
  br i1 %26, label %27, label %28

27:                                               ; preds = %7
  store i32 -1, ptr %8, align 4
  br label %119

28:                                               ; preds = %7
  %29 = load ptr, ptr %12, align 8, !tbaa !49
  %30 = icmp eq ptr %29, null
  br i1 %30, label %31, label %34

31:                                               ; preds = %28
  %32 = load i32, ptr %13, align 4, !tbaa !14
  %33 = icmp ne i32 %32, 0
  br i1 %33, label %37, label %39

34:                                               ; preds = %28
  %35 = load i32, ptr %13, align 4, !tbaa !14
  %36 = icmp slt i32 %35, 0
  br i1 %36, label %37, label %39

37:                                               ; preds = %34, %31
  %38 = load ptr, ptr %15, align 8, !tbaa !22
  store i32 1, ptr %38, align 4, !tbaa !15
  store i32 0, ptr %8, align 4
  br label %119

39:                                               ; preds = %34, %31
  call void @llvm.lifetime.start.p0(i64 64, ptr %16) #11
  call void @_ZN6icu_7713UnicodeStringC2Ev(ptr noundef nonnull align 8 dereferenceable(64) %16)
  %40 = load ptr, ptr %12, align 8, !tbaa !49
  %41 = icmp ne ptr %40, null
  br i1 %41, label %42, label %51

42:                                               ; preds = %39
  %43 = load ptr, ptr %12, align 8, !tbaa !49
  %44 = load i32, ptr %13, align 4, !tbaa !14
  %45 = invoke noundef nonnull align 8 dereferenceable(64) ptr @_ZN6icu_7713UnicodeString5setToEPDsii(ptr noundef nonnull align 8 dereferenceable(64) %16, ptr noundef %43, i32 noundef 0, i32 noundef %44)
          to label %46 unwind label %47

46:                                               ; preds = %42
  br label %51

47:                                               ; preds = %42
  %48 = landingpad { ptr, i32 }
          cleanup
  %49 = extractvalue { ptr, i32 } %48, 0
  store ptr %49, ptr %17, align 8
  %50 = extractvalue { ptr, i32 } %48, 1
  store i32 %50, ptr %18, align 4
  br label %118

51:                                               ; preds = %46, %39
  call void @llvm.lifetime.start.p0(i64 24, ptr %19) #11
  invoke void @_ZN6icu_7713FieldPositionC2Ev(ptr noundef nonnull align 8 dereferenceable(20) %19)
          to label %52 unwind label %60

52:                                               ; preds = %51
  %53 = load ptr, ptr %14, align 8, !tbaa !70
  %54 = icmp ne ptr %53, null
  br i1 %54, label %55, label %68

55:                                               ; preds = %52
  %56 = load ptr, ptr %14, align 8, !tbaa !70
  %57 = getelementptr inbounds nuw %struct.UFieldPosition, ptr %56, i32 0, i32 0
  %58 = load i32, ptr %57, align 4, !tbaa !72
  invoke void @_ZN6icu_7713FieldPosition8setFieldEi(ptr noundef nonnull align 8 dereferenceable(20) %19, i32 noundef %58)
          to label %59 unwind label %64

59:                                               ; preds = %55
  br label %68

60:                                               ; preds = %51
  %61 = landingpad { ptr, i32 }
          cleanup
  %62 = extractvalue { ptr, i32 } %61, 0
  store ptr %62, ptr %17, align 8
  %63 = extractvalue { ptr, i32 } %61, 1
  store i32 %63, ptr %18, align 4
  br label %117

64:                                               ; preds = %55
  %65 = landingpad { ptr, i32 }
          cleanup
  %66 = extractvalue { ptr, i32 } %65, 0
  store ptr %66, ptr %17, align 8
  %67 = extractvalue { ptr, i32 } %65, 1
  store i32 %67, ptr %18, align 4
  br label %116

68:                                               ; preds = %59, %52
  call void @llvm.lifetime.start.p0(i64 24, ptr %20) #11
  %69 = load double, ptr %10, align 8, !tbaa !68
  %70 = load double, ptr %11, align 8, !tbaa !68
  invoke void @_ZN6icu_7712DateIntervalC1Edd(ptr noundef nonnull align 8 dereferenceable(24) %20, double noundef %69, double noundef %70)
          to label %71 unwind label %82

71:                                               ; preds = %68
  %72 = load ptr, ptr %9, align 8, !tbaa !66
  %73 = load ptr, ptr %15, align 8, !tbaa !22
  %74 = invoke noundef nonnull align 8 dereferenceable(64) ptr @_ZNK6icu_7718DateIntervalFormat6formatEPKNS_12DateIntervalERNS_13UnicodeStringERNS_13FieldPositionER10UErrorCode(ptr noundef nonnull align 8 dereferenceable(1596) %72, ptr noundef %20, ptr noundef nonnull align 8 dereferenceable(64) %16, ptr noundef nonnull align 8 dereferenceable(20) %19, ptr noundef nonnull align 4 dereferenceable(4) %73)
          to label %75 unwind label %86

75:                                               ; preds = %71
  %76 = load ptr, ptr %15, align 8, !tbaa !22
  %77 = load i32, ptr %76, align 4, !tbaa !15
  %78 = invoke noundef signext i8 @_ZL9U_FAILURE10UErrorCode(i32 noundef %77)
          to label %79 unwind label %86

79:                                               ; preds = %75
  %80 = icmp ne i8 %78, 0
  br i1 %80, label %81, label %90

81:                                               ; preds = %79
  store i32 -1, ptr %8, align 4
  store i32 1, ptr %21, align 4
  br label %113

82:                                               ; preds = %68
  %83 = landingpad { ptr, i32 }
          cleanup
  %84 = extractvalue { ptr, i32 } %83, 0
  store ptr %84, ptr %17, align 8
  %85 = extractvalue { ptr, i32 } %83, 1
  store i32 %85, ptr %18, align 4
  br label %115

86:                                               ; preds = %102, %95, %93, %75, %71
  %87 = landingpad { ptr, i32 }
          cleanup
  %88 = extractvalue { ptr, i32 } %87, 0
  store ptr %88, ptr %17, align 8
  %89 = extractvalue { ptr, i32 } %87, 1
  store i32 %89, ptr %18, align 4
  br label %114

90:                                               ; preds = %79
  %91 = load ptr, ptr %14, align 8, !tbaa !70
  %92 = icmp ne ptr %91, null
  br i1 %92, label %93, label %102

93:                                               ; preds = %90
  %94 = invoke noundef i32 @_ZNK6icu_7713FieldPosition13getBeginIndexEv(ptr noundef nonnull align 8 dereferenceable(20) %19)
          to label %95 unwind label %86

95:                                               ; preds = %93
  %96 = load ptr, ptr %14, align 8, !tbaa !70
  %97 = getelementptr inbounds nuw %struct.UFieldPosition, ptr %96, i32 0, i32 1
  store i32 %94, ptr %97, align 4, !tbaa !74
  %98 = invoke noundef i32 @_ZNK6icu_7713FieldPosition11getEndIndexEv(ptr noundef nonnull align 8 dereferenceable(20) %19)
          to label %99 unwind label %86

99:                                               ; preds = %95
  %100 = load ptr, ptr %14, align 8, !tbaa !70
  %101 = getelementptr inbounds nuw %struct.UFieldPosition, ptr %100, i32 0, i32 2
  store i32 %98, ptr %101, align 4, !tbaa !75
  br label %102

102:                                              ; preds = %99, %90
  %103 = load ptr, ptr %12, align 8, !tbaa !49
  invoke void @_ZN6icu_779Char16PtrC2EPDs(ptr noundef nonnull align 8 dereferenceable(8) %22, ptr noundef %103)
          to label %104 unwind label %86

104:                                              ; preds = %102
  %105 = load i32, ptr %13, align 4, !tbaa !14
  %106 = load ptr, ptr %15, align 8, !tbaa !22
  %107 = invoke noundef i32 @_ZNK6icu_7713UnicodeString7extractENS_9Char16PtrEiR10UErrorCode(ptr noundef nonnull align 8 dereferenceable(64) %16, ptr noundef %22, i32 noundef %105, ptr noundef nonnull align 4 dereferenceable(4) %106)
          to label %108 unwind label %109

108:                                              ; preds = %104
  store i32 %107, ptr %8, align 4
  call void @_ZN6icu_779Char16PtrD2Ev(ptr noundef nonnull align 8 dereferenceable(8) %22) #11
  store i32 1, ptr %21, align 4
  br label %113

109:                                              ; preds = %104
  %110 = landingpad { ptr, i32 }
          cleanup
  %111 = extractvalue { ptr, i32 } %110, 0
  store ptr %111, ptr %17, align 8
  %112 = extractvalue { ptr, i32 } %110, 1
  store i32 %112, ptr %18, align 4
  call void @_ZN6icu_779Char16PtrD2Ev(ptr noundef nonnull align 8 dereferenceable(8) %22) #11
  br label %114

113:                                              ; preds = %108, %81
  call void @_ZN6icu_7712DateIntervalD1Ev(ptr noundef nonnull align 8 dereferenceable(24) %20) #11
  call void @llvm.lifetime.end.p0(i64 24, ptr %20) #11
  call void @_ZN6icu_7713FieldPositionD1Ev(ptr noundef nonnull align 8 dereferenceable(20) %19) #11
  call void @llvm.lifetime.end.p0(i64 24, ptr %19) #11
  call void @_ZN6icu_7713UnicodeStringD1Ev(ptr noundef nonnull align 8 dereferenceable(64) %16) #11
  call void @llvm.lifetime.end.p0(i64 64, ptr %16) #11
  br label %119

114:                                              ; preds = %109, %86
  call void @_ZN6icu_7712DateIntervalD1Ev(ptr noundef nonnull align 8 dereferenceable(24) %20) #11
  br label %115

115:                                              ; preds = %114, %82
  call void @llvm.lifetime.end.p0(i64 24, ptr %20) #11
  br label %116

116:                                              ; preds = %115, %64
  call void @_ZN6icu_7713FieldPositionD1Ev(ptr noundef nonnull align 8 dereferenceable(20) %19) #11
  br label %117

117:                                              ; preds = %116, %60
  call void @llvm.lifetime.end.p0(i64 24, ptr %19) #11
  br label %118

118:                                              ; preds = %117, %47
  call void @_ZN6icu_7713UnicodeStringD1Ev(ptr noundef nonnull align 8 dereferenceable(64) %16) #11
  call void @llvm.lifetime.end.p0(i64 64, ptr %16) #11
  br label %121

119:                                              ; preds = %113, %37, %27
  %120 = load i32, ptr %8, align 4
  ret i32 %120

121:                                              ; preds = %118
  %122 = load ptr, ptr %17, align 8
  %123 = load i32, ptr %18, align 4
  %124 = insertvalue { ptr, i32 } poison, ptr %122, 0
  %125 = insertvalue { ptr, i32 } %124, i32 %123, 1
  resume { ptr, i32 } %125
}