; Function Attrs: mustprogress uwtable
define noundef i32 @udtitvfmt_format_77(ptr noundef %0, double noundef %1, double noundef %2, ptr noundef %3, i32 noundef %4, ptr noundef %5, ptr noundef %6) local_unnamed_addr #1 personality ptr @__gxx_personality_v0 {
  %8 = alloca %"class.icu_77::UnicodeString", align 8
  %9 = alloca %"class.icu_77::FieldPosition", align 8
  %10 = alloca %"class.icu_77::DateInterval", align 8
  %11 = alloca %"class.icu_77::Char16Ptr", align 8
  %12 = load i32, ptr %6, align 4, !tbaa !13
  %13 = icmp slt i32 %12, 1
  br i1 %13, label %14, label %59

14:                                               ; preds = %7
  %15 = icmp eq ptr %3, null
  br i1 %15, label %16, label %18

16:                                               ; preds = %14
  %.not31 = icmp eq i32 %4, 0
  br i1 %.not31, label %.thread, label %20

.thread:                                          ; preds = %16
  call void @llvm.lifetime.start.p0(i64 64, ptr nonnull %8) #14
  store ptr getelementptr inbounds nuw inrange(-16, 88) (i8, ptr @_ZTVN6icu_7713UnicodeStringE, i64 16), ptr %8, align 8, !tbaa !19
  %17 = getelementptr inbounds nuw i8, ptr %8, i64 8
  store i16 2, ptr %17, align 8, !tbaa !33
  br label %26

18:                                               ; preds = %14
  %19 = icmp slt i32 %4, 0
  br i1 %19, label %20, label %21

20:                                               ; preds = %18, %16
  store i32 1, ptr %6, align 4, !tbaa !13
  br label %59

21:                                               ; preds = %18
  call void @llvm.lifetime.start.p0(i64 64, ptr nonnull %8) #14
  store ptr getelementptr inbounds nuw inrange(-16, 88) (i8, ptr @_ZTVN6icu_7713UnicodeStringE, i64 16), ptr %8, align 8, !tbaa !19
  %22 = getelementptr inbounds nuw i8, ptr %8, i64 8
  store i16 2, ptr %22, align 8, !tbaa !33
  %23 = invoke noundef nonnull align 8 dereferenceable(64) ptr @_ZN6icu_7713UnicodeString5setToEPDsii(ptr noundef nonnull align 8 dereferenceable(64) %8, ptr noundef nonnull %3, i32 noundef 0, i32 noundef %4)
          to label %26 unwind label %24

24:                                               ; preds = %21
  %25 = landingpad { ptr, i32 }
          cleanup
  br label %58

26:                                               ; preds = %.thread, %21
  call void @llvm.lifetime.start.p0(i64 24, ptr nonnull %9) #14
  store ptr getelementptr inbounds nuw inrange(-16, 24) (i8, ptr @_ZTVN6icu_7713FieldPositionE, i64 16), ptr %9, align 8, !tbaa !19
  %27 = getelementptr inbounds nuw i8, ptr %9, i64 8
  store i32 -1, ptr %27, align 8, !tbaa !34
  %28 = getelementptr inbounds nuw i8, ptr %9, i64 12
  store i32 0, ptr %28, align 4, !tbaa !37
  %29 = getelementptr inbounds nuw i8, ptr %9, i64 16
  store i32 0, ptr %29, align 8, !tbaa !38
  %.not33 = icmp eq ptr %5, null
  br i1 %.not33, label %32, label %30

30:                                               ; preds = %26
  %31 = load i32, ptr %5, align 4, !tbaa !39
  store i32 %31, ptr %27, align 8, !tbaa !34
  br label %32

32:                                               ; preds = %30, %26
  call void @llvm.lifetime.start.p0(i64 24, ptr nonnull %10) #14
  invoke void @_ZN6icu_7712DateIntervalC1Edd(ptr noundef nonnull align 8 dereferenceable(24) %10, double noundef %1, double noundef %2)
          to label %33 unwind label %38

33:                                               ; preds = %32
  %34 = invoke noundef nonnull align 8 dereferenceable(64) ptr @_ZNK6icu_7718DateIntervalFormat6formatEPKNS_12DateIntervalERNS_13UnicodeStringERNS_13FieldPositionER10UErrorCode(ptr noundef nonnull align 8 dereferenceable(1596) %0, ptr noundef nonnull %10, ptr noundef nonnull align 8 dereferenceable(64) %8, ptr noundef nonnull align 8 dereferenceable(20) %9, ptr noundef nonnull align 4 dereferenceable(4) %6)
          to label %35 unwind label %40

35:                                               ; preds = %33
  %36 = load i32, ptr %6, align 4, !tbaa !13
  %37 = icmp slt i32 %36, 1
  br i1 %37, label %42, label %55

38:                                               ; preds = %32
  %39 = landingpad { ptr, i32 }
          cleanup
  br label %57

40:                                               ; preds = %33
  %41 = landingpad { ptr, i32 }
          cleanup
  br label %56

42:                                               ; preds = %35
  br i1 %.not33, label %48, label %43

43:                                               ; preds = %42
  %44 = load i32, ptr %28, align 4, !tbaa !37
  %45 = getelementptr inbounds nuw i8, ptr %5, i64 4
  store i32 %44, ptr %45, align 4, !tbaa !41
  %46 = load i32, ptr %29, align 8, !tbaa !38
  %47 = getelementptr inbounds nuw i8, ptr %5, i64 8
  store i32 %46, ptr %47, align 4, !tbaa !42
  br label %48

48:                                               ; preds = %43, %42
  store ptr %3, ptr %11, align 8, !tbaa !43
  %49 = invoke noundef i32 @_ZNK6icu_7713UnicodeString7extractENS_9Char16PtrEiR10UErrorCode(ptr noundef nonnull align 8 dereferenceable(64) %8, ptr noundef nonnull %11, i32 noundef %4, ptr noundef nonnull align 4 dereferenceable(4) %6)
          to label %50 unwind label %52

50:                                               ; preds = %48
  %51 = load ptr, ptr %11, align 8, !tbaa !43
  call void asm sideeffect "", "rm,~{memory},~{dirflag},~{fpsr},~{flags}"(ptr %51) #14, !srcloc !45
  br label %55

52:                                               ; preds = %48
  %53 = landingpad { ptr, i32 }
          cleanup
  %54 = load ptr, ptr %11, align 8, !tbaa !43
  call void asm sideeffect "", "rm,~{memory},~{dirflag},~{fpsr},~{flags}"(ptr %54) #14, !srcloc !45
  br label %56

55:                                               ; preds = %35, %50
  %.127 = phi i32 [ %49, %50 ], [ -1, %35 ]
  call void @_ZN6icu_7712DateIntervalD1Ev(ptr noundef nonnull align 8 dereferenceable(24) %10) #14
  call void @llvm.lifetime.end.p0(i64 24, ptr nonnull %10) #14
  call void @_ZN6icu_7713FieldPositionD1Ev(ptr noundef nonnull align 8 dereferenceable(20) %9) #14
  call void @llvm.lifetime.end.p0(i64 24, ptr nonnull %9) #14
  call void @_ZN6icu_7713UnicodeStringD1Ev(ptr noundef nonnull align 8 dereferenceable(64) %8) #14
  call void @llvm.lifetime.end.p0(i64 64, ptr nonnull %8) #14
  br label %59

56:                                               ; preds = %52, %40
  %.pn = phi { ptr, i32 } [ %53, %52 ], [ %41, %40 ]
  call void @_ZN6icu_7712DateIntervalD1Ev(ptr noundef nonnull align 8 dereferenceable(24) %10) #14
  br label %57

57:                                               ; preds = %56, %38
  %.pn.pn = phi { ptr, i32 } [ %.pn, %56 ], [ %39, %38 ]
  call void @llvm.lifetime.end.p0(i64 24, ptr nonnull %10) #14
  call void @_ZN6icu_7713FieldPositionD1Ev(ptr noundef nonnull align 8 dereferenceable(20) %9) #14
  call void @llvm.lifetime.end.p0(i64 24, ptr nonnull %9) #14
  br label %58

58:                                               ; preds = %57, %24
  %.pn.pn.pn = phi { ptr, i32 } [ %.pn.pn, %57 ], [ %25, %24 ]
  call void @_ZN6icu_7713UnicodeStringD1Ev(ptr noundef nonnull align 8 dereferenceable(64) %8) #14
  call void @llvm.lifetime.end.p0(i64 64, ptr nonnull %8) #14
  resume { ptr, i32 } %.pn.pn.pn

59:                                               ; preds = %7, %55, %20
  %.026 = phi i32 [ 0, %20 ], [ %.127, %55 ], [ -1, %7 ]
  ret i32 %.026
}